target datalayout = "e-m:e-p270:32:32-p271:32:32-p272:64:64-i64:64-i128:128-f80:128-n8:16:32:64-S128"
target triple = "x86_64-unknown-linux-gnu"

; Function Attrs: mustprogress uwtable
define internal noundef i32 @_ZN6icu_75L18collatorComparatorEPKvS1_S1_(ptr noundef %context, ptr noundef %left, ptr noundef %right) #2 {
entry:
  %retval = alloca i32, align 4
  %context.addr = alloca ptr, align 8
  %left.addr = alloca ptr, align 8
  %right.addr = alloca ptr, align 8
  %leftElement = alloca ptr, align 8
  %rightElement = alloca ptr, align 8
  %leftString = alloca ptr, align 8
  %rightString = alloca ptr, align 8
  %col = alloca ptr, align 8
  %errorCode = alloca i32, align 4
  store ptr %context, ptr %context.addr, align 8
  store ptr %left, ptr %left.addr, align 8
  store ptr %right, ptr %right.addr, align 8
  %0 = load ptr, ptr %left.addr, align 8
  store ptr %0, ptr %leftElement, align 8
  %1 = load ptr, ptr %right.addr, align 8
  store ptr %1, ptr %rightElement, align 8
  %2 = load ptr, ptr %leftElement, align 8
  %3 = load ptr, ptr %2, align 8
  store ptr %3, ptr %leftString, align 8
  %4 = load ptr, ptr %rightElement, align 8
  %5 = load ptr, ptr %4, align 8
  store ptr %5, ptr %rightString, align 8
  %6 = load ptr, ptr %leftString, align 8
  %7 = load ptr, ptr %rightString, align 8
  %cmp = icmp eq ptr %6, %7
  br i1 %cmp, label %if.then, label %if.end

if.then:                                          ; preds = %entry
  store i32 0, ptr %retval, align 4
  br label %return

if.end:                                           ; preds = %entry
  %8 = load ptr, ptr %leftString, align 8
  %cmp1 = icmp eq ptr %8, null
  br i1 %cmp1, label %if.then2, label %if.end3

if.then2:                                         ; preds = %if.end
  store i32 1, ptr %retval, align 4
  br label %return

if.end3:                                          ; preds = %if.end
  %9 = load ptr, ptr %rightString, align 8
  %cmp4 = icmp eq ptr %9, null
  br i1 %cmp4, label %if.then5, label %if.end6

if.then5:                                         ; preds = %if.end3
  store i32 -1, ptr %retval, align 4
  br label %return

if.end6:                                          ; preds = %if.end3
  %10 = load ptr, ptr %context.addr, align 8
  store ptr %10, ptr %col, align 8
  store i32 0, ptr %errorCode, align 4
  %11 = load ptr, ptr %col, align 8
  %12 = load ptr, ptr %leftString, align 8
  %13 = load ptr, ptr %rightString, align 8
  %vtable = load ptr, ptr %11, align 8
  %vfn = getelementptr inbounds ptr, ptr %vtable, i64 7
  %14 = load ptr, ptr %vfn, align 8
  %call = call noundef i32 %14(ptr noundef nonnull align 8 dereferenceable(8) %11, ptr noundef nonnull align 8 dereferenceable(64) %12, ptr noundef nonnull align 8 dereferenceable(64) %13, ptr noundef nonnull align 4 dereferenceable(4) %errorCode)
  store i32 %call, ptr %retval, align 4
  br label %return

return:                                           ; preds = %if.end6, %if.then5, %if.then2, %if.then
  %15 = load i32, ptr %retval, align 4
  ret i32 %15
}