; Function Attrs: mustprogress uwtable
define internal noundef i32 @_ZN6icu_75L18collatorComparatorEPKvS1_S1_(ptr noundef %context, ptr nocapture noundef readonly %left, ptr nocapture noundef readonly %right) #3 {
entry:
  %errorCode = alloca i32, align 4
  %0 = load ptr, ptr %left, align 8
  %1 = load ptr, ptr %right, align 8
  %cmp = icmp eq ptr %0, %1
  br i1 %cmp, label %return, label %if.end

if.end:                                           ; preds = %entry
  %cmp1 = icmp eq ptr %0, null
  br i1 %cmp1, label %return, label %if.end3

if.end3:                                          ; preds = %if.end
  %cmp4 = icmp eq ptr %1, null
  br i1 %cmp4, label %return, label %if.end6

if.end6:                                          ; preds = %if.end3
  store i32 0, ptr %errorCode, align 4
  %vtable = load ptr, ptr %context, align 8
  %vfn = getelementptr inbounds i8, ptr %vtable, i64 56
  %2 = load ptr, ptr %vfn, align 8
  %call = call noundef i32 %2(ptr noundef nonnull align 8 dereferenceable(8) %context, ptr noundef nonnull align 8 dereferenceable(64) %0, ptr noundef nonnull align 8 dereferenceable(64) %1, ptr noundef nonnull align 4 dereferenceable(4) %errorCode)
  br label %return

return:                                           ; preds = %if.end3, %if.end, %entry, %if.end6
  %retval.0 = phi i32 [ %call, %if.end6 ], [ 0, %entry ], [ 1, %if.end ], [ -1, %if.end3 ]
  ret i32 %retval.0
}